; Function Attrs: nounwind uwtable
define dso_local range(i64 0, 2) i64 @has_column_privilege_name_id_attnum(ptr noundef captures(none) %0) local_unnamed_addr #0 {
  %2 = alloca i8, align 1
  %3 = getelementptr inbounds nuw i8, ptr %0, i64 32
  %4 = load i64, ptr %3, align 8
  %5 = inttoptr i64 %4 to ptr
  %6 = getelementptr inbounds nuw i8, ptr %0, i64 48
  %7 = load i64, ptr %6, align 8
  %8 = trunc i64 %7 to i32
  %9 = getelementptr inbounds nuw i8, ptr %0, i64 64
  %10 = load i64, ptr %9, align 8
  %11 = trunc i64 %10 to i16
  %12 = getelementptr inbounds nuw i8, ptr %0, i64 80
  %13 = load i64, ptr %12, align 8
  %14 = inttoptr i64 %13 to ptr
  %15 = tail call ptr @pg_detoast_datum_packed(ptr noundef %14) #14
  %16 = tail call i32 @strcmp(ptr noundef nonnull dereferenceable(1) %5, ptr noundef nonnull dereferenceable(7) @.str.32) #17
  %17 = icmp eq i32 %16, 0
  br i1 %17, label %get_role_oid_or_public.exit, label %18

18:                                               ; preds = %1
  %19 = tail call i32 @GetSysCacheOid(i32 noundef 10, i16 noundef signext 1, i64 noundef %4, i64 noundef 0, i64 noundef 0, i64 noundef 0) #14
  %.not.i.not.i = icmp eq i32 %19, 0
  br i1 %.not.i.not.i, label %20, label %get_role_oid_or_public.exit

20:                                               ; preds = %18
  %21 = tail call zeroext i1 @errstart_cold(i32 noundef 21, ptr noundef null) #15
  tail call void @llvm.assume(i1 %21)
  %22 = tail call i32 @errcode(i32 noundef 67137668) #14
  %23 = tail call i32 (ptr, ...) @errmsg(ptr noundef nonnull @.str.31, ptr noundef nonnull %5) #14
  tail call void @errfinish(ptr noundef nonnull @.str.1, i32 noundef 5563, ptr noundef nonnull @__func__.get_role_oid) #14
  unreachable

get_role_oid_or_public.exit:                      ; preds = %1, %18
  %.0.i = phi i32 [ 0, %1 ], [ %19, %18 ]
  %24 = tail call fastcc i64 @convert_any_priv_string(ptr noundef %15, ptr noundef nonnull @convert_column_priv_string.column_priv_map)
  call void @llvm.lifetime.start.p0(i64 1, ptr nonnull %2) #14
  store i8 0, ptr %2, align 1
  %25 = icmp eq i16 %11, 0
  br i1 %25, label %column_privilege_check.exit.thread, label %26

26:                                               ; preds = %get_role_oid_or_public.exit
  %27 = call i32 @pg_attribute_aclcheck_ext(i32 noundef %8, i16 noundef signext %11, i32 noundef %.0.i, i64 noundef %24, ptr noundef nonnull %2) #14
  %28 = icmp eq i32 %27, 0
  br i1 %28, label %column_privilege_check.exit.thread17, label %29

29:                                               ; preds = %26
  %30 = load i8, ptr %2, align 1, !range !27, !noundef !28
  %31 = trunc nuw i8 %30 to i1
  br i1 %31, label %column_privilege_check.exit.thread, label %32

32:                                               ; preds = %29
  %33 = call i32 @pg_class_aclcheck_ext(i32 noundef %8, i32 noundef %.0.i, i64 noundef %24, ptr noundef nonnull %2) #14
  %34 = icmp eq i32 %33, 0
  br i1 %34, label %column_privilege_check.exit.thread17, label %column_privilege_check.exit

column_privilege_check.exit.thread:               ; preds = %get_role_oid_or_public.exit, %29
  call void @llvm.lifetime.end.p0(i64 1, ptr nonnull %2) #14
  br label %36

column_privilege_check.exit.thread17:             ; preds = %26, %32
  call void @llvm.lifetime.end.p0(i64 1, ptr nonnull %2) #14
  br label %38

column_privilege_check.exit:                      ; preds = %32
  %35 = load i8, ptr %2, align 1, !range !27, !noundef !28
  call void @llvm.lifetime.end.p0(i64 1, ptr nonnull %2) #14
  %.not = icmp eq i8 %35, 0
  br i1 %.not, label %38, label %36

36:                                               ; preds = %column_privilege_check.exit.thread, %column_privilege_check.exit
  %37 = getelementptr inbounds nuw i8, ptr %0, i64 28
  store i8 1, ptr %37, align 4
  br label %38

38:                                               ; preds = %column_privilege_check.exit, %column_privilege_check.exit.thread17, %36
  %.0 = phi i64 [ 0, %36 ], [ 1, %column_privilege_check.exit.thread17 ], [ 0, %column_privilege_check.exit ]
  ret i64 %.0
}